target datalayout = "e-m:e-p270:32:32-p271:32:32-p272:64:64-i64:64-i128:128-f80:128-n8:16:32:64-S128"
target triple = "x86_64-unknown-linux-gnu"

%struct.NamedGPIOList = type { ptr, ptr, i32, i32, %struct.anon }
%struct.anon = type { ptr, ptr }
%struct.DeviceState = type { %struct.Object, ptr, ptr, i8, i8, i64, ptr, i32, i8, ptr, %struct.NamedGPIOListHead, %struct.NamedClockListHead, %struct.BusStateHead, i32, i32, i32, %struct.ResettableState, ptr, %struct.MemReentrancyGuard }
%struct.Object = type { ptr, ptr, ptr, i32, ptr }
%struct.NamedGPIOListHead = type { ptr }
%struct.NamedClockListHead = type { ptr }
%struct.BusStateHead = type { ptr }
%struct.ResettableState = type { i32, i8, i8 }
%struct.MemReentrancyGuard = type { i8 }

@.str = private unnamed_addr constant [33 x i8] c"gpio_list->num_out == 0 || !name\00", align 1
@.str.1 = private unnamed_addr constant [23 x i8] c"../qemu/hw/core/gpio.c\00", align 1
@__PRETTY_FUNCTION__.qdev_init_gpio_in_named_with_opaque = private unnamed_addr constant [101 x i8] c"void qdev_init_gpio_in_named_with_opaque(DeviceState *, qemu_irq_handler, void *, const char *, int)\00", align 1
@.str.2 = private unnamed_addr constant [16 x i8] c"unnamed-gpio-in\00", align 1
@.str.3 = private unnamed_addr constant [7 x i8] c"%s[%u]\00", align 1

; Function Attrs: nounwind sspstrong uwtable
define internal ptr @qdev_get_named_gpio_list(ptr noundef %dev, ptr noundef %name) #0 {
entry:
  %retval = alloca ptr, align 8
  %dev.addr = alloca ptr, align 8
  %name.addr = alloca ptr, align 8
  %ngl = alloca ptr, align 8
  store ptr %dev, ptr %dev.addr, align 8
  store ptr %name, ptr %name.addr, align 8
  %0 = load ptr, ptr %dev.addr, align 8
  %gpios = getelementptr inbounds %struct.DeviceState, ptr %0, i32 0, i32 10
  %lh_first = getelementptr inbounds %struct.NamedGPIOListHead, ptr %gpios, i32 0, i32 0
  %1 = load ptr, ptr %lh_first, align 8
  store ptr %1, ptr %ngl, align 8
  br label %for.cond

for.cond:                                         ; preds = %for.inc, %entry
  %2 = load ptr, ptr %ngl, align 8
  %tobool = icmp ne ptr %2, null
  br i1 %tobool, label %for.body, label %for.end

for.body:                                         ; preds = %for.cond
  %3 = load ptr, ptr %name.addr, align 8
  %4 = load ptr, ptr %ngl, align 8
  %name1 = getelementptr inbounds %struct.NamedGPIOList, ptr %4, i32 0, i32 0
  %5 = load ptr, ptr %name1, align 8
  %call = call i32 @g_strcmp0(ptr noundef %3, ptr noundef %5)
  %cmp = icmp eq i32 %call, 0
  br i1 %cmp, label %if.then, label %if.end

if.then:                                          ; preds = %for.body
  %6 = load ptr, ptr %ngl, align 8
  store ptr %6, ptr %retval, align 8
  br label %return

if.end:                                           ; preds = %for.body
  br label %for.inc

for.inc:                                          ; preds = %if.end
  %7 = load ptr, ptr %ngl, align 8
  %node = getelementptr inbounds %struct.NamedGPIOList, ptr %7, i32 0, i32 4
  %le_next = getelementptr inbounds %struct.anon, ptr %node, i32 0, i32 0
  %8 = load ptr, ptr %le_next, align 8
  store ptr %8, ptr %ngl, align 8
  br label %for.cond, !llvm.loop !7

for.end:                                          ; preds = %for.cond
  %call2 = call noalias ptr @g_malloc0(i64 noundef 40) #6
  store ptr %call2, ptr %ngl, align 8
  %9 = load ptr, ptr %name.addr, align 8
  %call3 = call noalias ptr @g_strdup(ptr noundef %9)
  %10 = load ptr, ptr %ngl, align 8
  %name4 = getelementptr inbounds %struct.NamedGPIOList, ptr %10, i32 0, i32 0
  store ptr %call3, ptr %name4, align 8
  br label %do.body

do.body:                                          ; preds = %for.end
  %11 = load ptr, ptr %dev.addr, align 8
  %gpios5 = getelementptr inbounds %struct.DeviceState, ptr %11, i32 0, i32 10
  %lh_first6 = getelementptr inbounds %struct.NamedGPIOListHead, ptr %gpios5, i32 0, i32 0
  %12 = load ptr, ptr %lh_first6, align 8
  %13 = load ptr, ptr %ngl, align 8
  %node7 = getelementptr inbounds %struct.NamedGPIOList, ptr %13, i32 0, i32 4
  %le_next8 = getelementptr inbounds %struct.anon, ptr %node7, i32 0, i32 0
  store ptr %12, ptr %le_next8, align 8
  %cmp9 = icmp ne ptr %12, null
  br i1 %cmp9, label %if.then10, label %if.end16

if.then10:                                        ; preds = %do.body
  %14 = load ptr, ptr %ngl, align 8
  %node11 = getelementptr inbounds %struct.NamedGPIOList, ptr %14, i32 0, i32 4
  %le_next12 = getelementptr inbounds %struct.anon, ptr %node11, i32 0, i32 0
  %15 = load ptr, ptr %dev.addr, align 8
  %gpios13 = getelementptr inbounds %struct.DeviceState, ptr %15, i32 0, i32 10
  %lh_first14 = getelementptr inbounds %struct.NamedGPIOListHead, ptr %gpios13, i32 0, i32 0
  %16 = load ptr, ptr %lh_first14, align 8
  %node15 = getelementptr inbounds %struct.NamedGPIOList, ptr %16, i32 0, i32 4
  %le_prev = getelementptr inbounds %struct.anon, ptr %node15, i32 0, i32 1
  store ptr %le_next12, ptr %le_prev, align 8
  br label %if.end16

if.end16:                                         ; preds = %if.then10, %do.body
  %17 = load ptr, ptr %ngl, align 8
  %18 = load ptr, ptr %dev.addr, align 8
  %gpios17 = getelementptr inbounds %struct.DeviceState, ptr %18, i32 0, i32 10
  %lh_first18 = getelementptr inbounds %struct.NamedGPIOListHead, ptr %gpios17, i32 0, i32 0
  store ptr %17, ptr %lh_first18, align 8
  %19 = load ptr, ptr %dev.addr, align 8
  %gpios19 = getelementptr inbounds %struct.DeviceState, ptr %19, i32 0, i32 10
  %lh_first20 = getelementptr inbounds %struct.NamedGPIOListHead, ptr %gpios19, i32 0, i32 0
  %20 = load ptr, ptr %ngl, align 8
  %node21 = getelementptr inbounds %struct.NamedGPIOList, ptr %20, i32 0, i32 4
  %le_prev22 = getelementptr inbounds %struct.anon, ptr %node21, i32 0, i32 1
  store ptr %lh_first20, ptr %le_prev22, align 8
  br label %do.end

do.end:                                           ; preds = %if.end16
  %21 = load ptr, ptr %ngl, align 8
  store ptr %21, ptr %retval, align 8
  br label %return

return:                                           ; preds = %do.end, %if.then
  %22 = load ptr, ptr %retval, align 8
  ret ptr %22
}

; Function Attrs: nounwind sspstrong uwtable
define dso_local void @qdev_init_gpio_in_named_with_opaque(ptr noundef %dev, ptr noundef %handler, ptr noundef %opaque, ptr noundef %name, i32 noundef %n) #0 {
entry:
  %dev.addr = alloca ptr, align 8
  %handler.addr = alloca ptr, align 8
  %opaque.addr = alloca ptr, align 8
  %name.addr = alloca ptr, align 8
  %n.addr = alloca i32, align 4
  %i = alloca i32, align 4
  %gpio_list = alloca ptr, align 8
  %propname = alloca ptr, align 8
  store ptr %dev, ptr %dev.addr, align 8
  store ptr %handler, ptr %handler.addr, align 8
  store ptr %opaque, ptr %opaque.addr, align 8
  store ptr %name, ptr %name.addr, align 8
  store i32 %n, ptr %n.addr, align 4
  %0 = load ptr, ptr %dev.addr, align 8
  %1 = load ptr, ptr %name.addr, align 8
  %call = call ptr @qdev_get_named_gpio_list(ptr noundef %0, ptr noundef %1)
  store ptr %call, ptr %gpio_list, align 8
  %2 = load ptr, ptr %gpio_list, align 8
  %num_out = getelementptr inbounds %struct.NamedGPIOList, ptr %2, i32 0, i32 3
  %3 = load i32, ptr %num_out, align 4
  %cmp = icmp eq i32 %3, 0
  br i1 %cmp, label %if.then, label %lor.lhs.false

lor.lhs.false:                                    ; preds = %entry
  %4 = load ptr, ptr %name.addr, align 8
  %tobool = icmp ne ptr %4, null
  br i1 %tobool, label %if.else, label %if.then

if.then:                                          ; preds = %lor.lhs.false, %entry
  br label %if.end

if.else:                                          ; preds = %lor.lhs.false
  call void @__assert_fail(ptr noundef @.str, ptr noundef @.str.1, i32 noundef 51, ptr noundef @__PRETTY_FUNCTION__.qdev_init_gpio_in_named_with_opaque) #5
  unreachable

if.end:                                           ; preds = %if.then
  %5 = load ptr, ptr %gpio_list, align 8
  %in = getelementptr inbounds %struct.NamedGPIOList, ptr %5, i32 0, i32 1
  %6 = load ptr, ptr %in, align 8
  %7 = load ptr, ptr %gpio_list, align 8
  %num_in = getelementptr inbounds %struct.NamedGPIOList, ptr %7, i32 0, i32 2
  %8 = load i32, ptr %num_in, align 8
  %9 = load ptr, ptr %handler.addr, align 8
  %10 = load ptr, ptr %opaque.addr, align 8
  %11 = load i32, ptr %n.addr, align 4
  %call1 = call ptr @qemu_extend_irqs(ptr noundef %6, i32 noundef %8, ptr noundef %9, ptr noundef %10, i32 noundef %11)
  %12 = load ptr, ptr %gpio_list, align 8
  %in2 = getelementptr inbounds %struct.NamedGPIOList, ptr %12, i32 0, i32 1
  store ptr %call1, ptr %in2, align 8
  %13 = load ptr, ptr %name.addr, align 8
  %tobool3 = icmp ne ptr %13, null
  br i1 %tobool3, label %if.end5, label %if.then4

if.then4:                                         ; preds = %if.end
  store ptr @.str.2, ptr %name.addr, align 8
  br label %if.end5

if.end5:                                          ; preds = %if.then4, %if.end
  %14 = load ptr, ptr %gpio_list, align 8
  %num_in6 = getelementptr inbounds %struct.NamedGPIOList, ptr %14, i32 0, i32 2
  %15 = load i32, ptr %num_in6, align 8
  store i32 %15, ptr %i, align 4
  br label %for.cond

for.cond:                                         ; preds = %for.inc, %if.end5
  %16 = load i32, ptr %i, align 4
  %17 = load ptr, ptr %gpio_list, align 8
  %num_in7 = getelementptr inbounds %struct.NamedGPIOList, ptr %17, i32 0, i32 2
  %18 = load i32, ptr %num_in7, align 8
  %19 = load i32, ptr %n.addr, align 4
  %add = add i32 %18, %19
  %cmp8 = icmp slt i32 %16, %add
  br i1 %cmp8, label %for.body, label %for.end

for.body:                                         ; preds = %for.cond
  %20 = load ptr, ptr %name.addr, align 8
  %21 = load i32, ptr %i, align 4
  %call9 = call noalias ptr (ptr, ...) @g_strdup_printf(ptr noundef @.str.3, ptr noundef %20, i32 noundef %21)
  store ptr %call9, ptr %propname, align 8
  %22 = load ptr, ptr %dev.addr, align 8
  %23 = load ptr, ptr %propname, align 8
  %24 = load ptr, ptr %gpio_list, align 8
  %in10 = getelementptr inbounds %struct.NamedGPIOList, ptr %24, i32 0, i32 1
  %25 = load ptr, ptr %in10, align 8
  %26 = load i32, ptr %i, align 4
  %idxprom = sext i32 %26 to i64
  %arrayidx = getelementptr ptr, ptr %25, i64 %idxprom
  %27 = load ptr, ptr %arrayidx, align 8
  %call11 = call ptr @object_property_add_child(ptr noundef %22, ptr noundef %23, ptr noundef %27)
  %28 = load ptr, ptr %propname, align 8
  call void @g_free(ptr noundef %28)
  br label %for.inc

for.inc:                                          ; preds = %for.body
  %29 = load i32, ptr %i, align 4
  %inc = add i32 %29, 1
  store i32 %inc, ptr %i, align 4
  br label %for.cond, !llvm.loop !5

for.end:                                          ; preds = %for.cond
  %30 = load i32, ptr %n.addr, align 4
  %31 = load ptr, ptr %gpio_list, align 8
  %num_in12 = getelementptr inbounds %struct.NamedGPIOList, ptr %31, i32 0, i32 2
  %32 = load i32, ptr %num_in12, align 8
  %add13 = add i32 %32, %30
  store i32 %add13, ptr %num_in12, align 8
  ret void
}