; Function Attrs: nounwind sspstrong uwtable
define dso_local void @qdev_init_gpio_in_named_with_opaque(ptr noundef %dev, ptr noundef %handler, ptr noundef %opaque, ptr noundef %name, i32 noundef %n) local_unnamed_addr #0 {
entry:
  %gpios.i = getelementptr inbounds nuw i8, ptr %dev, i64 96
  %ngl.016.i = load ptr, ptr %gpios.i, align 8
  %tobool.not17.i = icmp eq ptr %ngl.016.i, null
  br i1 %tobool.not17.i, label %for.end.i, label %for.body.i

for.body.i:                                       ; preds = %entry, %for.inc.i
  %ngl.018.i = phi ptr [ %ngl.0.i, %for.inc.i ], [ %ngl.016.i, %entry ]
  %0 = load ptr, ptr %ngl.018.i, align 8
  %call.i = tail call i32 @g_strcmp0(ptr noundef %name, ptr noundef %0) #5
  %cmp.i = icmp eq i32 %call.i, 0
  br i1 %cmp.i, label %qdev_get_named_gpio_list.exit, label %for.inc.i

for.inc.i:                                        ; preds = %for.body.i
  %node.i = getelementptr inbounds nuw i8, ptr %ngl.018.i, i64 24
  %ngl.0.i = load ptr, ptr %node.i, align 8
  %tobool.not.i = icmp eq ptr %ngl.0.i, null
  br i1 %tobool.not.i, label %for.end.i, label %for.body.i, !llvm.loop !5

for.end.i:                                        ; preds = %for.inc.i, %entry
  %call2.i = tail call noalias dereferenceable_or_null(40) ptr @g_malloc0(i64 noundef 40) #6
  %call3.i = tail call noalias ptr @g_strdup(ptr noundef %name) #5
  store ptr %call3.i, ptr %call2.i, align 8
  %1 = load ptr, ptr %gpios.i, align 8
  %node7.i = getelementptr inbounds nuw i8, ptr %call2.i, i64 24
  store ptr %1, ptr %node7.i, align 8
  %cmp9.not.i = icmp eq ptr %1, null
  br i1 %cmp9.not.i, label %if.end16.i, label %if.then10.i

if.then10.i:                                      ; preds = %for.end.i
  %le_prev.i = getelementptr inbounds nuw i8, ptr %1, i64 32
  store ptr %node7.i, ptr %le_prev.i, align 8
  br label %if.end16.i

if.end16.i:                                       ; preds = %if.then10.i, %for.end.i
  store ptr %call2.i, ptr %gpios.i, align 8
  %le_prev22.i = getelementptr inbounds nuw i8, ptr %call2.i, i64 32
  store ptr %gpios.i, ptr %le_prev22.i, align 8
  br label %qdev_get_named_gpio_list.exit

qdev_get_named_gpio_list.exit:                    ; preds = %for.body.i, %if.end16.i
  %retval.0.i = phi ptr [ %call2.i, %if.end16.i ], [ %ngl.018.i, %for.body.i ]
  %num_out = getelementptr inbounds nuw i8, ptr %retval.0.i, i64 20
  %2 = load i32, ptr %num_out, align 4
  %cmp = icmp ne i32 %2, 0
  %tobool = icmp ne ptr %name, null
  %or.cond = and i1 %tobool, %cmp
  br i1 %or.cond, label %if.else, label %if.end

if.else:                                          ; preds = %qdev_get_named_gpio_list.exit
  tail call void @__assert_fail(ptr noundef nonnull @.str, ptr noundef nonnull @.str.1, i32 noundef 51, ptr noundef nonnull @__PRETTY_FUNCTION__.qdev_init_gpio_in_named_with_opaque) #7
  unreachable

if.end:                                           ; preds = %qdev_get_named_gpio_list.exit
  %in = getelementptr inbounds nuw i8, ptr %retval.0.i, i64 8
  %3 = load ptr, ptr %in, align 8
  %num_in = getelementptr inbounds nuw i8, ptr %retval.0.i, i64 16
  %4 = load i32, ptr %num_in, align 8
  %call1 = tail call ptr @qemu_extend_irqs(ptr noundef %3, i32 noundef %4, ptr noundef %handler, ptr noundef %opaque, i32 noundef %n) #5
  store ptr %call1, ptr %in, align 8
  %spec.store.select = select i1 %tobool, ptr %name, ptr @.str.2
  %5 = load i32, ptr %num_in, align 8
  %add19 = add i32 %5, %n
  %cmp820 = icmp slt i32 %5, %add19
  br i1 %cmp820, label %for.body.preheader, label %for.end

for.body.preheader:                               ; preds = %if.end
  %6 = sext i32 %5 to i64
  br label %for.body

for.body:                                         ; preds = %for.body.preheader, %for.body
  %indvars.iv = phi i64 [ %6, %for.body.preheader ], [ %indvars.iv.next, %for.body ]
  %7 = trunc nsw i64 %indvars.iv to i32
  %call9 = tail call noalias ptr (ptr, ...) @g_strdup_printf(ptr noundef nonnull @.str.3, ptr noundef nonnull %spec.store.select, i32 noundef %7) #5
  %8 = load ptr, ptr %in, align 8
  %arrayidx = getelementptr ptr, ptr %8, i64 %indvars.iv
  %9 = load ptr, ptr %arrayidx, align 8
  %call11 = tail call ptr @object_property_add_child(ptr noundef %dev, ptr noundef %call9, ptr noundef %9) #5
  tail call void @g_free(ptr noundef %call9) #5
  %indvars.iv.next = add nsw i64 %indvars.iv, 1
  %10 = load i32, ptr %num_in, align 8
  %add = add i32 %10, %n
  %11 = sext i32 %add to i64
  %cmp8 = icmp slt i64 %indvars.iv.next, %11
  br i1 %cmp8, label %for.body, label %for.end, !llvm.loop !7

for.end:                                          ; preds = %for.body, %if.end
  %add.lcssa = phi i32 [ %add19, %if.end ], [ %add, %for.body ]
  store i32 %add.lcssa, ptr %num_in, align 8
  ret void
}